; Function Attrs: mustprogress nofree norecurse nosync nounwind willreturn memory(readwrite, inaccessiblemem: none) uwtable
define internal void @_ZN8LightGBM19GradientDiscretizer22RenewIntGradTreeOutputEPNS_4TreeEPKNS_6ConfigEPKNS_13DataPartitionEPKfSA_RKSt8functionIFiiEE.omp_outlined.12.omp.reduction.reduction_func(ptr nocapture noundef readonly %0, ptr nocapture noundef readonly %1) #18 {
  %3 = load ptr, ptr %1, align 8
  %4 = load ptr, ptr %0, align 8
  %5 = getelementptr inbounds i8, ptr %1, i64 8
  %6 = load ptr, ptr %5, align 8
  %7 = getelementptr inbounds i8, ptr %0, i64 8
  %8 = load ptr, ptr %7, align 8
  %9 = load double, ptr %4, align 8
  %10 = load double, ptr %3, align 8
  %11 = fadd double %9, %10
  store double %11, ptr %4, align 8
  %12 = load double, ptr %8, align 8
  %13 = load double, ptr %6, align 8
  %14 = fadd double %12, %13
  store double %14, ptr %8, align 8
  ret void
}